(dp0
S'axis_scheme'
p1
(dp2
(I0
I1
tp3
(I2
I275
tp4
s(I0
I0
tp5
(I3
I275
tp6
s(I0
I-1
tp7
(I2
I276
tp8
s(I1
I0
tp9
(I3
I275
tp10
s(I1
I-1
tp11
(I2
I273
tp12
s(I1
I1
tp13
(I2
I274
tp14
ssS'keymapping'
p15
(dp16
I32
I32
sI97
I97
sI115
I115
sI100
I100
sI13
I13
sI273
I273
sI274
I274
sI275
I275
sI276
I276
sI119
I119
sI27
I27
ssS'hat_scheme'
p17
(dp18
(I0
I1
tp19
(I2
I273
tp20
s(I0
I-1
tp21
(I2
I274
tp22
s(I1
I0
tp23
(I2
I275
tp24
s(I0
I0
tp25
(I3
I275
tp26
s(I-1
I0
tp27
(I2
I276
tp28
ssS'button_scheme'
p29
(dp30
I0
I97
sI1
I115
sI2
I100
sI3
I119
sI4
I13
sI5
I32
sI9
I27
ss.